target datalayout = "e-m:e-p270:32:32-p271:32:32-p272:64:64-i64:64-i128:128-f80:128-n8:16:32:64-S128"
target triple = "x86_64-pc-linux-gnu"

%union.SourceSpan = type { i64 }
%struct.Signature_ = type <{ %struct.CalleeAttributes, i16, i8, i32, i32, [4 x i8], ptr }>
%struct.CalleeAttributes = type { i8 }
%struct.Decl_ = type { ptr, ptr, %union.SourceSpan, i64, %union.anon, i32, %union.anon.0, i64, ptr, ptr, ptr, %union.anon.1 }
%union.anon = type { ptr }
%union.anon.0 = type { i16 }
%union.anon.1 = type { %struct.FuncDecl }
%struct.FuncDecl = type { i32, [4 x i8], %struct.Signature_, i32, i32, %union.anon.8 }
%union.anon.8 = type { %struct.anon.9 }
%struct.anon.9 = type { i16, %union.anon.10 }
%union.anon.10 = type { ptr }

; Function Attrs: nounwind uwtable
define internal zeroext i1 @sema_analyse_attributes(ptr noundef %0, ptr noundef %1, ptr noundef %2, i32 noundef %3, ptr noundef %4) #0 {
  %6 = alloca ptr, align 8
  %7 = alloca ptr, align 8
  %8 = alloca ptr, align 8
  %9 = alloca i32, align 4
  %10 = alloca ptr, align 8
  store ptr %0, ptr %6, align 8
  store ptr %1, ptr %7, align 8
  store ptr %2, ptr %8, align 8
  store i32 %3, ptr %9, align 4
  store ptr %4, ptr %10, align 8
  %11 = load ptr, ptr %6, align 8
  %12 = load ptr, ptr %7, align 8
  %13 = load ptr, ptr %8, align 8
  %14 = load i32, ptr %9, align 4
  %15 = load ptr, ptr %10, align 8
  %16 = call zeroext i1 @sema_analyse_attributes_inner(ptr noundef %11, ptr noundef %12, ptr noundef %13, i32 noundef %14, ptr noundef null, ptr noundef %15)
  ret i1 %16
}

; Function Attrs: nounwind uwtable
define internal zeroext i1 @sema_analyse_fntype(ptr noundef %0, ptr noundef %1, ptr noundef %2) #0 {
  %4 = alloca ptr, align 8
  %5 = alloca i1, align 1
  %6 = alloca ptr, align 8
  %7 = alloca ptr, align 8
  %8 = alloca ptr, align 8
  %9 = alloca ptr, align 8
  store ptr %0, ptr %6, align 8
  store ptr %1, ptr %7, align 8
  store ptr %2, ptr %8, align 8
  %10 = load ptr, ptr %6, align 8
  %11 = load ptr, ptr %7, align 8
  %12 = load ptr, ptr %7, align 8
  %13 = getelementptr inbounds %struct.Decl_, ptr %12, i32 0, i32 9
  %14 = load ptr, ptr %13, align 8
  %15 = load ptr, ptr %8, align 8
  %16 = call zeroext i1 @sema_analyse_attributes(ptr noundef %10, ptr noundef %11, ptr noundef %14, i32 noundef 256, ptr noundef %15)
  br i1 %16, label %28, label %17

17:                                               ; preds = %3
  %18 = load ptr, ptr %7, align 8
  store ptr %18, ptr %4, align 8
  %19 = load ptr, ptr %4, align 8
  %20 = getelementptr inbounds %struct.Decl_, ptr %19, i32 0, i32 3
  %21 = load i64, ptr %20, align 8
  %22 = and i64 %21, -128
  store i64 %22, ptr %20, align 8
  %23 = load ptr, ptr %4, align 8
  %24 = getelementptr inbounds %struct.Decl_, ptr %23, i32 0, i32 3
  %25 = load i64, ptr %24, align 8
  %26 = and i64 %25, -897
  %27 = or i64 %26, 256
  store i64 %27, ptr %24, align 8
  store i1 false, ptr %5, align 1
  br label %46

28:                                               ; preds = %3
  %29 = load ptr, ptr %8, align 8
  %30 = load i8, ptr %29, align 1
  %31 = trunc i8 %30 to i1
  br i1 %31, label %32, label %33

32:                                               ; preds = %28
  store i1 true, ptr %5, align 1
  br label %46

33:                                               ; preds = %28
  %34 = load ptr, ptr %7, align 8
  %35 = getelementptr inbounds %struct.Decl_, ptr %34, i32 0, i32 11
  store ptr %35, ptr %9, align 8
  %36 = load ptr, ptr %6, align 8
  %37 = load ptr, ptr %7, align 8
  %38 = load ptr, ptr %9, align 8
  %39 = getelementptr inbounds %struct.Signature_, ptr %38, i32 0, i32 1
  %40 = load i16, ptr %39, align 1
  %41 = lshr i16 %40, 6
  %42 = and i16 %41, 255
  %43 = zext i16 %42 to i32
  %44 = load ptr, ptr %9, align 8
  %45 = call zeroext i1 @sema_analyse_function_signature(ptr noundef %36, ptr noundef %37, i32 noundef %43, ptr noundef %44)
  store i1 %45, ptr %5, align 1
  br label %46

46:                                               ; preds = %33, %32, %17
  %47 = load i1, ptr %5, align 1
  ret i1 %47
}