; Function Attrs: nounwind uwtable
define internal fastcc noundef zeroext i1 @sema_analyse_fntype(ptr noundef %0, ptr noundef %1, ptr nocapture noundef %2) unnamed_addr #0 {
  %4 = getelementptr inbounds i8, ptr %1, i64 64
  %5 = load ptr, ptr %4, align 8
  %6 = tail call fastcc noundef zeroext i1 @sema_analyse_attributes_inner(ptr noundef %0, ptr noundef %1, ptr noundef %5, i32 noundef 256, ptr noundef null, ptr noundef %2)
  br i1 %6, label %12, label %7

7:                                                ; preds = %3
  %8 = getelementptr inbounds i8, ptr %1, i64 24
  %9 = load i64, ptr %8, align 8
  %10 = and i64 %9, -1024
  %11 = or disjoint i64 %10, 256
  store i64 %11, ptr %8, align 8
  br label %23

12:                                               ; preds = %3
  %13 = load i8, ptr %2, align 1
  %14 = trunc i8 %13 to i1
  br i1 %14, label %23, label %15

15:                                               ; preds = %12
  %16 = getelementptr inbounds i8, ptr %1, i64 80
  %17 = getelementptr inbounds i8, ptr %1, i64 81
  %18 = load i16, ptr %17, align 1
  %19 = lshr i16 %18, 6
  %20 = and i16 %19, 255
  %21 = zext nneg i16 %20 to i32
  %22 = tail call zeroext i1 @sema_analyse_function_signature(ptr noundef %0, ptr noundef nonnull %1, i32 noundef %21, ptr noundef nonnull %16)
  br label %23

23:                                               ; preds = %12, %15, %7
  %.0 = phi i1 [ %22, %15 ], [ false, %7 ], [ true, %12 ]
  ret i1 %.0
}